; ModuleID = 'source-C-CXX/27/581.c'
source_filename = "source-C-CXX/27/581.c"
target datalayout = "e-m:e-p270:32:32-p271:32:32-p272:64:64-i64:64-f80:128-n8:16:32:64-S128"
target triple = "x86_64-pc-linux-gnu"

@.str = private unnamed_addr constant [4 x i8] c"%d,\00", align 1
@.str.1 = private unnamed_addr constant [3 x i8] c"%d\00", align 1

; Function Attrs: nounwind sspstrong uwtable
define dso_local void @main() local_unnamed_addr #0 {
  %1 = alloca [100000 x i8], align 16
  %2 = alloca [310 x i32], align 16
  %3 = getelementptr inbounds [100000 x i8], [100000 x i8]* %1, i64 0, i64 0
  call void @llvm.lifetime.start.p0i8(i64 100000, i8* nonnull %3) #5
  %4 = bitcast [310 x i32]* %2 to i8*
  call void @llvm.lifetime.start.p0i8(i64 1240, i8* nonnull %4) #5
  %5 = call i32 (i8*, ...) bitcast (i32 (...)* @gets to i32 (i8*, ...)*)(i8* nonnull %3) #5
  %6 = call i64 @strlen(i8* noundef nonnull %3) #6
  %7 = trunc i64 %6 to i32
  %8 = icmp sgt i32 %7, 0
  br i1 %8, label %9, label %49

9:                                                ; preds = %0
  %10 = add i64 %6, 4294967295
  %11 = and i64 %10, 4294967295
  %12 = and i64 %6, 4294967295
  br label %18

13:                                               ; preds = %34
  %14 = add i32 %36, -1
  %15 = icmp sgt i32 %36, 1
  br i1 %15, label %16, label %49

16:                                               ; preds = %13
  %17 = zext i32 %14 to i64
  br label %39

18:                                               ; preds = %9, %34
  %19 = phi i64 [ 0, %9 ], [ %37, %34 ]
  %20 = phi i32 [ 0, %9 ], [ %36, %34 ]
  %21 = phi i32 [ 0, %9 ], [ %35, %34 ]
  %22 = getelementptr inbounds [100000 x i8], [100000 x i8]* %1, i64 0, i64 %19
  %23 = load i8, i8* %22, align 1, !tbaa !5
  %24 = icmp eq i8 %23, 32
  %25 = xor i1 %24, true
  %26 = zext i1 %25 to i32
  %27 = add nsw i32 %21, %26
  %28 = icmp eq i64 %19, %11
  %29 = select i1 %24, i1 true, i1 %28
  br i1 %29, label %30, label %34

30:                                               ; preds = %18
  %31 = sext i32 %20 to i64
  %32 = getelementptr inbounds [310 x i32], [310 x i32]* %2, i64 0, i64 %31
  store i32 %27, i32* %32, align 4, !tbaa !8
  %33 = add nsw i32 %20, 1
  br label %34

34:                                               ; preds = %18, %30
  %35 = phi i32 [ 0, %30 ], [ %27, %18 ]
  %36 = phi i32 [ %33, %30 ], [ %20, %18 ]
  %37 = add nuw nsw i64 %19, 1
  %38 = icmp eq i64 %37, %12
  br i1 %38, label %13, label %18, !llvm.loop !10

39:                                               ; preds = %16, %46
  %40 = phi i64 [ 0, %16 ], [ %47, %46 ]
  %41 = getelementptr inbounds [310 x i32], [310 x i32]* %2, i64 0, i64 %40
  %42 = load i32, i32* %41, align 4, !tbaa !8
  %43 = icmp eq i32 %42, 0
  br i1 %43, label %46, label %44

44:                                               ; preds = %39
  %45 = call i32 (i8*, ...) @printf(i8* nonnull dereferenceable(1) getelementptr inbounds ([4 x i8], [4 x i8]* @.str, i64 0, i64 0), i32 %42)
  br label %46

46:                                               ; preds = %39, %44
  %47 = add nuw nsw i64 %40, 1
  %48 = icmp eq i64 %47, %17
  br i1 %48, label %49, label %39, !llvm.loop !12

49:                                               ; preds = %46, %0, %13
  %50 = phi i32 [ %14, %13 ], [ -1, %0 ], [ %14, %46 ]
  %51 = sext i32 %50 to i64
  %52 = getelementptr inbounds [310 x i32], [310 x i32]* %2, i64 0, i64 %51
  %53 = load i32, i32* %52, align 4, !tbaa !8
  %54 = icmp eq i32 %53, 0
  br i1 %54, label %57, label %55

55:                                               ; preds = %49
  %56 = call i32 (i8*, ...) @printf(i8* nonnull dereferenceable(1) getelementptr inbounds ([3 x i8], [3 x i8]* @.str.1, i64 0, i64 0), i32 %53)
  br label %57

57:                                               ; preds = %55, %49
  call void @llvm.lifetime.end.p0i8(i64 1240, i8* nonnull %4) #5
  call void @llvm.lifetime.end.p0i8(i64 100000, i8* nonnull %3) #5
  ret void
}

; Function Attrs: argmemonly mustprogress nofree nosync nounwind willreturn
declare void @llvm.lifetime.start.p0i8(i64 immarg, i8* nocapture) #1

declare i32 @gets(...) local_unnamed_addr #2

; Function Attrs: argmemonly mustprogress nofree nounwind readonly willreturn
declare i64 @strlen(i8* nocapture) local_unnamed_addr #3

; Function Attrs: nofree nounwind
declare noundef i32 @printf(i8* nocapture noundef readonly, ...) local_unnamed_addr #4

; Function Attrs: argmemonly mustprogress nofree nosync nounwind willreturn
declare void @llvm.lifetime.end.p0i8(i64 immarg, i8* nocapture) #1


!llvm.module.flags = !{!0, !1, !2, !3}
!llvm.ident = !{!4}

!0 = !{i32 1, !"wchar_size", i32 4}
!1 = !{i32 7, !"PIC Level", i32 2}
!2 = !{i32 7, !"PIE Level", i32 2}
!3 = !{i32 7, !"uwtable", i32 1}
!4 = !{!"clang version 13.0.0"}
!5 = !{!6, !6, i64 0}
!6 = !{!"omnipotent char", !7, i64 0}
!7 = !{!"Simple C/C++ TBAA"}
!8 = !{!9, !9, i64 0}
!9 = !{!"int", !6, i64 0}
!10 = distinct !{!10, !11}
!11 = !{!"llvm.loop.mustprogress"}
!12 = distinct !{!12, !11}
